; Function Attrs: mustprogress uwtable
define void @_ZN25MulticastStatisticsDialog8tapResetEP20_mcaststream_tapinfo(ptr nocapture noundef readonly %0) #0 align 2 {
  %2 = load ptr, ptr %0, align 8
  %.not = icmp eq ptr %2, null
  br i1 %.not, label %7, label %3

3:                                                ; preds = %1
  %4 = tail call noundef ptr @_ZN18TapParameterDialog15statsTreeWidgetEv(ptr noundef nonnull align 8 dereferenceable(224) %2)
  %.not4 = icmp eq ptr %4, null
  br i1 %.not4, label %7, label %5

5:                                                ; preds = %3
  %6 = tail call noundef ptr @_ZN18TapParameterDialog15statsTreeWidgetEv(ptr noundef nonnull align 8 dereferenceable(224) %2)
  tail call void @_ZN11QTreeWidget5clearEv(ptr noundef nonnull align 8 dereferenceable(40) %6)
  br label %7

7:                                                ; preds = %1, %3, %5
  ret void
}